target datalayout = "e-m:e-p270:32:32-p271:32:32-p272:64:64-i64:64-i128:128-f80:128-n8:16:32:64-S128"
target triple = "x86_64-pc-linux-gnu"

%struct.FT_FaceRec_ = type { i64, i64, i64, i64, i64, ptr, ptr, i32, ptr, i32, ptr, %struct.FT_Generic_, %struct.FT_BBox_, i16, i16, i16, i16, i16, i16, i16, i16, ptr, ptr, ptr, ptr, ptr, ptr, %struct.FT_ListRec_, %struct.FT_Generic_, ptr, ptr }
%struct.FT_BBox_ = type { i64, i64, i64, i64 }
%struct.FT_ListRec_ = type { ptr, ptr }
%struct.FT_Generic_ = type { ptr, ptr }
%struct.FT_ModuleRec_ = type { ptr, ptr, ptr }
%struct.FT_Module_Class_ = type { i64, i64, ptr, i64, i64, ptr, ptr, ptr, ptr }
%struct.FT_Service_PsInfoRec_ = type { ptr, ptr, ptr, ptr, ptr }

@.str = private unnamed_addr constant [16 x i8] c"postscript-info\00", align 1

; Function Attrs: nounwind uwtable
define i32 @FT_Get_PS_Font_Info(ptr noundef %0, ptr noundef %1) #0 {
  %3 = alloca i32, align 4
  %4 = alloca ptr, align 8
  %5 = alloca ptr, align 8
  %6 = alloca i32, align 4
  %7 = alloca ptr, align 8
  %8 = alloca i32, align 4
  %9 = alloca ptr, align 8
  %10 = alloca ptr, align 8
  store ptr %0, ptr %4, align 8, !tbaa !3
  store ptr %1, ptr %5, align 8, !tbaa !8
  call void @llvm.lifetime.start.p0(i64 4, ptr %6) #2
  call void @llvm.lifetime.start.p0(i64 8, ptr %7) #2
  %11 = load ptr, ptr %4, align 8, !tbaa !3
  %12 = icmp ne ptr %11, null
  br i1 %12, label %14, label %13

13:                                               ; preds = %2
  store i32 35, ptr %3, align 4
  store i32 1, ptr %8, align 4
  br label %58

14:                                               ; preds = %2
  %15 = load ptr, ptr %5, align 8, !tbaa !8
  %16 = icmp ne ptr %15, null
  br i1 %16, label %18, label %17

17:                                               ; preds = %14
  store i32 6, ptr %3, align 4
  store i32 1, ptr %8, align 4
  br label %58

18:                                               ; preds = %14
  br label %19

19:                                               ; preds = %18
  call void @llvm.lifetime.start.p0(i64 8, ptr %9) #2
  %20 = load ptr, ptr %4, align 8, !tbaa !3
  %21 = getelementptr inbounds nuw %struct.FT_FaceRec_, ptr %20, i32 0, i32 24
  %22 = load ptr, ptr %21, align 8, !tbaa !10
  store ptr %22, ptr %9, align 8, !tbaa !29
  call void @llvm.lifetime.start.p0(i64 8, ptr %10) #2
  store ptr null, ptr %10, align 8, !tbaa !31
  %23 = load ptr, ptr %9, align 8, !tbaa !29
  %24 = getelementptr inbounds nuw %struct.FT_ModuleRec_, ptr %23, i32 0, i32 0
  %25 = load ptr, ptr %24, align 8, !tbaa !32
  %26 = getelementptr inbounds nuw %struct.FT_Module_Class_, ptr %25, i32 0, i32 8
  %27 = load ptr, ptr %26, align 8, !tbaa !36
  %28 = icmp ne ptr %27, null
  br i1 %28, label %29, label %37

29:                                               ; preds = %19
  %30 = load ptr, ptr %9, align 8, !tbaa !29
  %31 = getelementptr inbounds nuw %struct.FT_ModuleRec_, ptr %30, i32 0, i32 0
  %32 = load ptr, ptr %31, align 8, !tbaa !32
  %33 = getelementptr inbounds nuw %struct.FT_Module_Class_, ptr %32, i32 0, i32 8
  %34 = load ptr, ptr %33, align 8, !tbaa !36
  %35 = load ptr, ptr %9, align 8, !tbaa !29
  %36 = call ptr %34(ptr noundef %35, ptr noundef @.str)
  store ptr %36, ptr %10, align 8, !tbaa !31
  br label %37

37:                                               ; preds = %29, %19
  %38 = load ptr, ptr %10, align 8, !tbaa !31
  store ptr %38, ptr %7, align 8, !tbaa !38
  call void @llvm.lifetime.end.p0(i64 8, ptr %10) #2
  call void @llvm.lifetime.end.p0(i64 8, ptr %9) #2
  br label %39

39:                                               ; preds = %37
  br label %40

40:                                               ; preds = %39
  %41 = load ptr, ptr %7, align 8, !tbaa !38
  %42 = icmp ne ptr %41, null
  br i1 %42, label %43, label %55

43:                                               ; preds = %40
  %44 = load ptr, ptr %7, align 8, !tbaa !38
  %45 = getelementptr inbounds nuw %struct.FT_Service_PsInfoRec_, ptr %44, i32 0, i32 0
  %46 = load ptr, ptr %45, align 8, !tbaa !40
  %47 = icmp ne ptr %46, null
  br i1 %47, label %48, label %55

48:                                               ; preds = %43
  %49 = load ptr, ptr %7, align 8, !tbaa !38
  %50 = getelementptr inbounds nuw %struct.FT_Service_PsInfoRec_, ptr %49, i32 0, i32 0
  %51 = load ptr, ptr %50, align 8, !tbaa !40
  %52 = load ptr, ptr %4, align 8, !tbaa !3
  %53 = load ptr, ptr %5, align 8, !tbaa !8
  %54 = call i32 %51(ptr noundef %52, ptr noundef %53)
  store i32 %54, ptr %6, align 4, !tbaa !42
  br label %56

55:                                               ; preds = %43, %40
  store i32 6, ptr %6, align 4, !tbaa !42
  br label %56

56:                                               ; preds = %55, %48
  %57 = load i32, ptr %6, align 4, !tbaa !42
  store i32 %57, ptr %3, align 4
  store i32 1, ptr %8, align 4
  br label %58

58:                                               ; preds = %56, %17, %13
  call void @llvm.lifetime.end.p0(i64 8, ptr %7) #2
  call void @llvm.lifetime.end.p0(i64 4, ptr %6) #2
  %59 = load i32, ptr %3, align 4
  ret i32 %59
}